; Function Attrs: mustprogress nounwind uwtable
define dso_local { ptr, i64 } @_ZNK5clang10installapi7Library7getNameEv(ptr noundef nonnull align 8 dereferenceable(105) %0) local_unnamed_addr #3 align 2 {
  %2 = alloca %"class.llvm::StringRef", align 8
  %3 = tail call noundef ptr @_ZNKSt7__cxx1112basic_stringIcSt11char_traitsIcESaIcEE4dataEv(ptr noundef nonnull align 8 dereferenceable(32) %0) #8
  %4 = getelementptr inbounds i8, ptr %2, i64 8
  %5 = tail call noundef i64 @_ZNKSt7__cxx1112basic_stringIcSt11char_traitsIcESaIcEE6lengthEv(ptr noundef nonnull align 8 dereferenceable(32) %0) #8
  %6 = icmp eq i64 %5, 0
  br i1 %6, label %._crit_edge, label %.lr.ph

.lr.ph:                                           ; preds = %1, %_ZNK4llvm9StringRef9ends_withES0_.exit.thread13
  %storemerge17 = phi i64 [ %14, %_ZNK4llvm9StringRef9ends_withES0_.exit.thread13 ], [ %5, %1 ]
  %7 = phi ptr [ %13, %_ZNK4llvm9StringRef9ends_withES0_.exit.thread13 ], [ %3, %1 ]
  %.not.i = icmp ult i64 %storemerge17, 10
  br i1 %.not.i, label %_ZNK4llvm9StringRef9ends_withES0_.exit.thread13, label %_ZNK4llvm9StringRef9ends_withES0_.exit

_ZNK4llvm9StringRef9ends_withES0_.exit:           ; preds = %.lr.ph
  %8 = getelementptr inbounds i8, ptr %7, i64 %storemerge17
  %9 = getelementptr inbounds i8, ptr %8, i64 -10
  %bcmp.i = tail call i32 @bcmp(ptr noundef nonnull dereferenceable(10) %9, ptr noundef nonnull dereferenceable(10) @.str.2, i64 10)
  %10 = icmp eq i32 %bcmp.i, 0
  br i1 %10, label %_ZNK4llvm9StringRef9ends_withES0_.exit.thread, label %_ZNK4llvm9StringRef9ends_withES0_.exit.thread13

_ZNK4llvm9StringRef9ends_withES0_.exit.thread:    ; preds = %_ZNK4llvm9StringRef9ends_withES0_.exit
  %11 = tail call { ptr, i64 } @_ZN4llvm3sys4path8filenameENS_9StringRefENS1_5StyleE(ptr %7, i64 %storemerge17, i32 noundef 0) #8
  br label %24

_ZNK4llvm9StringRef9ends_withES0_.exit.thread13:  ; preds = %.lr.ph, %_ZNK4llvm9StringRef9ends_withES0_.exit
  %12 = tail call { ptr, i64 } @_ZN4llvm3sys4path11parent_pathENS_9StringRefENS1_5StyleE(ptr %7, i64 %storemerge17, i32 noundef 0) #8
  %13 = extractvalue { ptr, i64 } %12, 0
  %14 = extractvalue { ptr, i64 } %12, 1
  %15 = icmp eq i64 %14, 0
  br i1 %15, label %._crit_edge, label %.lr.ph, !llvm.loop !4

._crit_edge:                                      ; preds = %_ZNK4llvm9StringRef9ends_withES0_.exit.thread13, %1
  %16 = tail call noundef ptr @_ZNKSt7__cxx1112basic_stringIcSt11char_traitsIcESaIcEE4dataEv(ptr noundef nonnull align 8 dereferenceable(32) %0) #8
  %17 = tail call noundef i64 @_ZNKSt7__cxx1112basic_stringIcSt11char_traitsIcESaIcEE6lengthEv(ptr noundef nonnull align 8 dereferenceable(32) %0) #8
  store ptr %16, ptr %2, align 8
  store i64 %17, ptr %4, align 8
  %18 = call noundef i64 @_ZNK4llvm9StringRef16find_last_not_ofES0_m(ptr noundef nonnull align 8 dereferenceable(16) %2, ptr nonnull @.str.3, i64 1, i64 noundef -1) #8
  %19 = add i64 %18, 1
  %20 = load i64, ptr %4, align 8
  %.sroa.speculated.i = call i64 @llvm.umin.i64(i64 %19, i64 %20)
  %.neg.i = sub i64 %20, %17
  %21 = add i64 %.neg.i, %.sroa.speculated.i
  %22 = load ptr, ptr %2, align 8
  %.sroa.speculated.i.i.i = call i64 @llvm.umin.i64(i64 %20, i64 %21)
  %23 = call { ptr, i64 } @_ZN4llvm3sys4path8filenameENS_9StringRefENS1_5StyleE(ptr %22, i64 %.sroa.speculated.i.i.i, i32 noundef 0) #8
  br label %24

24:                                               ; preds = %._crit_edge, %_ZNK4llvm9StringRef9ends_withES0_.exit.thread
  %.pn = phi { ptr, i64 } [ %11, %_ZNK4llvm9StringRef9ends_withES0_.exit.thread ], [ %23, %._crit_edge ]
  ret { ptr, i64 } %.pn
}